; Function Attrs: nounwind uwtable
define void @_ZTv0_n72_N14colvarbias_abfD1Ev(ptr noundef %0) unnamed_addr #3 align 2 {
  %2 = load ptr, ptr %0, align 8, !tbaa !57
  %3 = getelementptr inbounds i8, ptr %2, i64 -72
  %4 = load i64, ptr %3, align 8
  %5 = getelementptr inbounds i8, ptr %0, i64 %4
  tail call void @_ZN14colvarbias_abfD2Ev(ptr noundef nonnull align 8 dereferenceable(2232) %5, ptr noundef nonnull @_ZTT14colvarbias_abf) #27
  %6 = getelementptr inbounds nuw i8, ptr %5, i64 2552
  tail call void @_ZN10colvardepsD2Ev(ptr noundef nonnull align 8 dereferenceable(120) %6) #27
  %7 = getelementptr inbounds nuw i8, ptr %5, i64 2232
  tail call void @_ZN11colvarparseD2Ev(ptr noundef nonnull align 8 dereferenceable(320) %7) #27
  ret void
}